; Function Attrs: mustprogress uwtable
define noundef nonnull align 4 dereferenceable(16) ptr @_ZNK7Imf_3_25Image18dataWindowForLevelEii(ptr nocapture noundef nonnull readonly align 8 dereferenceable(104) %this, i32 noundef %lx, i32 noundef %ly) local_unnamed_addr #6 align 2 personality ptr @__gxx_personality_v0 {
entry:
  %_iex_throw_s = alloca %"class.std::__cxx11::basic_stringstream", align 8
  %cmp.i = icmp sgt i32 %lx, -1
  br i1 %cmp.i, label %land.lhs.true.i, label %do.body

land.lhs.true.i:                                  ; preds = %entry
  %conv.i = zext nneg i32 %lx to i64
  %_sizeY.i.i = getelementptr inbounds i8, ptr %this, i64 88
  %0 = load i64, ptr %_sizeY.i.i, align 8
  %cmp2.i = icmp sgt i64 %0, %conv.i
  %cmp4.i = icmp sgt i32 %ly, -1
  %or.cond.i = and i1 %cmp4.i, %cmp2.i
  br i1 %or.cond.i, label %land.lhs.true5.i, label %do.body

land.lhs.true5.i:                                 ; preds = %land.lhs.true.i
  %_levels.i = getelementptr inbounds i8, ptr %this, i64 80
  %conv6.i = zext nneg i32 %ly to i64
  %1 = load i64, ptr %_levels.i, align 8
  %cmp9.i = icmp sgt i64 %1, %conv6.i
  br i1 %cmp9.i, label %_ZNK7Imf_3_25Image18levelNumberIsValidEii.exit, label %do.body

_ZNK7Imf_3_25Image18levelNumberIsValidEii.exit:   ; preds = %land.lhs.true5.i
  %_data.i.i = getelementptr inbounds i8, ptr %this, i64 96
  %2 = load ptr, ptr %_data.i.i, align 8
  %mul.i.i = mul nsw i64 %0, %conv6.i
  %add.ptr.i.i = getelementptr inbounds ptr, ptr %2, i64 %mul.i.i
  %arrayidx.i = getelementptr inbounds ptr, ptr %add.ptr.i.i, i64 %conv.i
  %3 = load ptr, ptr %arrayidx.i, align 8
  %cmp13.i.not = icmp eq ptr %3, null
  br i1 %cmp13.i.not, label %do.body, label %if.end

do.body:                                          ; preds = %entry, %land.lhs.true.i, %land.lhs.true5.i, %_ZNK7Imf_3_25Image18levelNumberIsValidEii.exit
  tail call void @_Z13iex_debugTrapv()
  call void @_ZNSt7__cxx1118basic_stringstreamIcSt11char_traitsIcESaIcEEC1Ev(ptr noundef nonnull align 8 dereferenceable(128) %_iex_throw_s)
  %add.ptr = getelementptr inbounds i8, ptr %_iex_throw_s, i64 16
  %call2 = invoke noundef nonnull align 8 dereferenceable(8) ptr @_ZStlsISt11char_traitsIcEERSt13basic_ostreamIcT_ES5_PKc(ptr noundef nonnull align 8 dereferenceable(8) %add.ptr, ptr noundef nonnull @.str.1)
          to label %invoke.cont unwind label %lpad

invoke.cont:                                      ; preds = %do.body
  %call4 = invoke noundef nonnull align 8 dereferenceable(8) ptr @_ZNSolsEi(ptr noundef nonnull align 8 dereferenceable(8) %call2, i32 noundef %lx)
          to label %invoke.cont3 unwind label %lpad

invoke.cont3:                                     ; preds = %invoke.cont
  %call6 = invoke noundef nonnull align 8 dereferenceable(8) ptr @_ZStlsISt11char_traitsIcEERSt13basic_ostreamIcT_ES5_PKc(ptr noundef nonnull align 8 dereferenceable(8) %call4, ptr noundef nonnull @.str.2)
          to label %invoke.cont5 unwind label %lpad

invoke.cont5:                                     ; preds = %invoke.cont3
  %call8 = invoke noundef nonnull align 8 dereferenceable(8) ptr @_ZNSolsEi(ptr noundef nonnull align 8 dereferenceable(8) %call6, i32 noundef %ly)
          to label %invoke.cont7 unwind label %lpad

invoke.cont7:                                     ; preds = %invoke.cont5
  %call10 = invoke noundef nonnull align 8 dereferenceable(8) ptr @_ZStlsISt11char_traitsIcEERSt13basic_ostreamIcT_ES5_PKc(ptr noundef nonnull align 8 dereferenceable(8) %call8, ptr noundef nonnull @.str.3)
          to label %invoke.cont9 unwind label %lpad

invoke.cont9:                                     ; preds = %invoke.cont7
  %exception = call ptr @__cxa_allocate_exception(i64 72) #22
  invoke void @_ZN7Iex_3_26ArgExcC1ERNSt7__cxx1118basic_stringstreamIcSt11char_traitsIcESaIcEEE(ptr noundef nonnull align 8 dereferenceable(72) %exception, ptr noundef nonnull align 8 dereferenceable(128) %_iex_throw_s)
          to label %invoke.cont12 unwind label %lpad11

invoke.cont12:                                    ; preds = %invoke.cont9
  invoke void @__cxa_throw(ptr nonnull %exception, ptr nonnull @_ZTIN7Iex_3_26ArgExcE, ptr nonnull @_ZN7Iex_3_26ArgExcD1Ev) #25
          to label %unreachable unwind label %lpad

lpad:                                             ; preds = %invoke.cont12, %invoke.cont7, %invoke.cont5, %invoke.cont3, %invoke.cont, %do.body
  %4 = landingpad { ptr, i32 }
          cleanup
  br label %ehcleanup

lpad11:                                           ; preds = %invoke.cont9
  %5 = landingpad { ptr, i32 }
          cleanup
  call void @__cxa_free_exception(ptr %exception) #22
  br label %ehcleanup

ehcleanup:                                        ; preds = %lpad11, %lpad
  %.pn = phi { ptr, i32 } [ %4, %lpad ], [ %5, %lpad11 ]
  call void @_ZNSt7__cxx1118basic_stringstreamIcSt11char_traitsIcESaIcEED1Ev(ptr noundef nonnull align 8 dereferenceable(128) %_iex_throw_s) #22
  resume { ptr, i32 } %.pn

if.end:                                           ; preds = %_ZNK7Imf_3_25Image18levelNumberIsValidEii.exit
  %_dataWindow.i = getelementptr inbounds i8, ptr %3, i64 24
  ret ptr %_dataWindow.i

unreachable:                                      ; preds = %invoke.cont12
  unreachable
}